; Function Attrs: mustprogress nofree norecurse nosync nounwind willreturn memory(read, inaccessiblemem: none) uwtable
define hidden noundef ptr @_ZNK6Assimp4Ogre9Animation20AssociatedVertexDataEPNS0_20VertexAnimationTrackE(ptr noundef nonnull readonly align 8 captures(none) dereferenceable(112) %0, ptr noundef readonly captures(none) %1) local_unnamed_addr #9 align 2 {
  %3 = load ptr, ptr %0, align 8
  %4 = icmp eq ptr %3, null
  br i1 %4, label %30, label %5

5:                                                ; preds = %2
  %6 = getelementptr inbounds nuw i8, ptr %1, i64 4
  %7 = load i16, ptr %6, align 4
  %8 = icmp eq i16 %7, 0
  br i1 %8, label %9, label %11

9:                                                ; preds = %5
  %10 = getelementptr inbounds nuw i8, ptr %3, i64 48
  br label %29

11:                                               ; preds = %5
  %12 = zext i16 %7 to i32
  %13 = add nsw i32 %12, -1
  %14 = getelementptr inbounds nuw i8, ptr %3, i64 56
  %15 = getelementptr inbounds nuw i8, ptr %3, i64 64
  %16 = load ptr, ptr %15, align 8
  %17 = load ptr, ptr %14, align 8
  %.not9.not.i = icmp eq ptr %16, %17
  br i1 %.not9.not.i, label %_ZNK6Assimp4Ogre4Mesh10GetSubMeshEm.exit, label %.lr.ph.preheader.i

.lr.ph.preheader.i:                               ; preds = %11
  %18 = ptrtoint ptr %16 to i64
  %19 = ptrtoint ptr %17 to i64
  %20 = sub i64 %18, %19
  %21 = ashr exact i64 %20, 3
  %umax.i = tail call i64 @llvm.umax.i64(i64 %21, i64 1)
  br label %.lr.ph.i

22:                                               ; preds = %.lr.ph.i
  %23 = add nuw i64 %.0710.i, 1
  %exitcond.not.i = icmp eq i64 %23, %umax.i
  br i1 %exitcond.not.i, label %_ZNK6Assimp4Ogre4Mesh10GetSubMeshEm.exit, label %.lr.ph.i, !llvm.loop !26

.lr.ph.i:                                         ; preds = %22, %.lr.ph.preheader.i
  %.0710.i = phi i64 [ %23, %22 ], [ 0, %.lr.ph.preheader.i ]
  %24 = getelementptr inbounds nuw ptr, ptr %17, i64 %.0710.i
  %25 = load ptr, ptr %24, align 8
  %26 = load i32, ptr %25, align 8
  %27 = icmp eq i32 %26, %13
  br i1 %27, label %_ZNK6Assimp4Ogre4Mesh10GetSubMeshEm.exit, label %22

_ZNK6Assimp4Ogre4Mesh10GetSubMeshEm.exit:         ; preds = %22, %.lr.ph.i, %11
  %spec.select.i = phi ptr [ null, %11 ], [ null, %22 ], [ %25, %.lr.ph.i ]
  %28 = getelementptr inbounds nuw i8, ptr %spec.select.i, i64 152
  br label %29

29:                                               ; preds = %_ZNK6Assimp4Ogre4Mesh10GetSubMeshEm.exit, %9
  %.1.in = phi ptr [ %10, %9 ], [ %28, %_ZNK6Assimp4Ogre4Mesh10GetSubMeshEm.exit ]
  %.1 = load ptr, ptr %.1.in, align 8
  br label %30

30:                                               ; preds = %2, %29
  %.0 = phi ptr [ %.1, %29 ], [ null, %2 ]
  ret ptr %.0
}